; Function Attrs: mustprogress uwtable
define void @_ZN8proxygen10HTTPChecks14generateHeaderERN5folly10IOBufQueueEmRKNS_11HTTPMessageEbPNS_14HTTPHeaderSizeERKNS1_8OptionalINS_11HTTPHeadersEEE(ptr nocapture noundef nonnull readonly align 8 dereferenceable(72) %this, ptr noundef nonnull align 8 dereferenceable(72) %writeBuf, i64 noundef %stream, ptr noundef nonnull align 8 dereferenceable(616) %msg, i1 noundef zeroext %eom, ptr noundef %sizeOut, ptr noundef nonnull align 8 dereferenceable(40) %extraHeaders) unnamed_addr #3 align 2 personality ptr @__gxx_personality_v0 {
entry:
  %agg.tmp = alloca %"class.folly::Optional.49", align 4
  %ref.tmp5 = alloca %"class.google::LogMessageFatal", align 8
  %fields_.i = getelementptr inbounds i8, ptr %msg, i64 168
  %0 = load i8, ptr %fields_.i, align 8
  %cmp.i = icmp eq i8 %0, 1
  br i1 %cmp.i, label %land.lhs.true, label %if.end

land.lhs.true:                                    ; preds = %entry
  %headers_.i = getelementptr inbounds i8, ptr %msg, i64 480
  %call3 = tail call noundef zeroext i1 @_ZN8proxygen7RFC261611bodyImpliedERKNS_11HTTPHeadersE(ptr noundef nonnull align 8 dereferenceable(32) %headers_.i)
  br i1 %call3, label %if.then, label %if.end

if.then:                                          ; preds = %land.lhs.true
  call void @_ZNK8proxygen11HTTPMessage9getMethodEv(ptr nonnull sret(%"class.folly::Optional.49") align 4 %agg.tmp, ptr noundef nonnull align 8 dereferenceable(616) %msg)
  %call4 = call noundef i32 @_ZN8proxygen7RFC261620isRequestBodyAllowedEN5folly8OptionalINS_10HTTPMethodEEE(ptr noundef nonnull %agg.tmp)
  %cmp.not = icmp eq i32 %call4, 2
  br i1 %cmp.not, label %cond.false, label %if.end

cond.false:                                       ; preds = %if.then
  call void @_ZN6google15LogMessageFatalC1EPKci(ptr noundef nonnull align 8 dereferenceable(96) %ref.tmp5, ptr noundef nonnull @.str.1, i32 noundef 44)
  %call6 = invoke noundef nonnull align 8 dereferenceable(8) ptr @_ZN6google10LogMessage6streamEv(ptr noundef nonnull align 8 dereferenceable(96) %ref.tmp5)
          to label %invoke.cont unwind label %lpad

invoke.cont:                                      ; preds = %cond.false
  %call8 = invoke noundef nonnull align 8 dereferenceable(8) ptr @_ZStlsISt11char_traitsIcEERSt13basic_ostreamIcT_ES5_PKc(ptr noundef nonnull align 8 dereferenceable(8) %call6, ptr noundef nonnull @.str.2)
          to label %cleanup.action unwind label %lpad

cleanup.action:                                   ; preds = %invoke.cont
  call void @_ZN6google15LogMessageFatalD1Ev(ptr noundef nonnull align 8 dereferenceable(96) %ref.tmp5) #16
  unreachable

lpad:                                             ; preds = %invoke.cont, %cond.false
  %1 = landingpad { ptr, i32 }
          cleanup
  call void @_ZN6google15LogMessageFatalD1Ev(ptr noundef nonnull align 8 dereferenceable(96) %ref.tmp5) #16
  unreachable

if.end:                                           ; preds = %if.then, %land.lhs.true, %entry
  %call_ = getelementptr inbounds i8, ptr %this, i64 24
  %2 = load ptr, ptr %call_, align 8
  %vtable = load ptr, ptr %2, align 8
  %vfn = getelementptr inbounds i8, ptr %vtable, i64 184
  %3 = load ptr, ptr %vfn, align 8
  call void %3(ptr noundef nonnull align 8 dereferenceable(8) %2, ptr noundef nonnull align 8 dereferenceable(72) %writeBuf, i64 noundef %stream, ptr noundef nonnull align 8 dereferenceable(616) %msg, i1 noundef zeroext %eom, ptr noundef %sizeOut, ptr noundef nonnull align 8 dereferenceable(40) %extraHeaders)
  ret void
}